; ModuleID = '38/1537.c'
source_filename = "38/1537.c"
target datalayout = "e-m:e-p270:32:32-p271:32:32-p272:64:64-i64:64-f80:128-n8:16:32:64-S128"
target triple = "x86_64-pc-linux-gnu"

@.str = private unnamed_addr constant [3 x i8] c"%d\00", align 1
@.str.1 = private unnamed_addr constant [4 x i8] c"%lf\00", align 1
@.str.2 = private unnamed_addr constant [6 x i8] c"%.5f\0A\00", align 1

; Function Attrs: noinline nounwind uwtable
define dso_local i32 @main() #0 {
  %1 = alloca i32, align 4
  %2 = alloca i32, align 4
  %3 = alloca i32, align 4
  %4 = alloca i32, align 4
  %5 = alloca i32, align 4
  %6 = alloca [1000 x double*], align 16
  %7 = alloca double, align 8
  %8 = alloca double, align 8
  %9 = alloca double, align 8
  store i32 0, i32* %1, align 4
  %10 = call i32 (i8*, ...) @__isoc99_scanf(i8* getelementptr inbounds ([3 x i8], [3 x i8]* @.str, i64 0, i64 0), i32* %4)
  store i32 0, i32* %2, align 4
  br label %11

11:                                               ; preds = %77, %0
  %12 = load i32, i32* %2, align 4
  %13 = load i32, i32* %4, align 4
  %14 = icmp slt i32 %12, %13
  br i1 %14, label %15, label %80

15:                                               ; preds = %11
  %16 = call i32 (i8*, ...) @__isoc99_scanf(i8* getelementptr inbounds ([3 x i8], [3 x i8]* @.str, i64 0, i64 0), i32* %5)
  store double 0.000000e+00, double* %7, align 8
  store double 0.000000e+00, double* %9, align 8
  store i32 0, i32* %3, align 4
  br label %17

17:                                               ; preds = %42, %15
  %18 = load i32, i32* %3, align 4
  %19 = load i32, i32* %5, align 4
  %20 = icmp slt i32 %18, %19
  br i1 %20, label %21, label %45

21:                                               ; preds = %17
  %22 = call noalias i8* @malloc(i64 8) #3
  %23 = bitcast i8* %22 to double*
  %24 = getelementptr inbounds [1000 x double*], [1000 x double*]* %6, i64 0, i64 0
  %25 = load i32, i32* %3, align 4
  %26 = sext i32 %25 to i64
  %27 = getelementptr inbounds double*, double** %24, i64 %26
  store double* %23, double** %27, align 8
  %28 = getelementptr inbounds [1000 x double*], [1000 x double*]* %6, i64 0, i64 0
  %29 = load i32, i32* %3, align 4
  %30 = sext i32 %29 to i64
  %31 = getelementptr inbounds double*, double** %28, i64 %30
  %32 = load double*, double** %31, align 8
  %33 = call i32 (i8*, ...) @__isoc99_scanf(i8* getelementptr inbounds ([4 x i8], [4 x i8]* @.str.1, i64 0, i64 0), double* %32)
  %34 = getelementptr inbounds [1000 x double*], [1000 x double*]* %6, i64 0, i64 0
  %35 = load i32, i32* %3, align 4
  %36 = sext i32 %35 to i64
  %37 = getelementptr inbounds double*, double** %34, i64 %36
  %38 = load double*, double** %37, align 8
  %39 = load double, double* %38, align 8
  %40 = load double, double* %7, align 8
  %41 = fadd double %40, %39
  store double %41, double* %7, align 8
  br label %42

42:                                               ; preds = %21
  %43 = load i32, i32* %3, align 4
  %44 = add nsw i32 %43, 1
  store i32 %44, i32* %3, align 4
  br label %17

45:                                               ; preds = %17
  %46 = load double, double* %7, align 8
  %47 = load i32, i32* %5, align 4
  %48 = sitofp i32 %47 to double
  %49 = fdiv double %46, %48
  store double %49, double* %8, align 8
  store i32 0, i32* %3, align 4
  br label %50

50:                                               ; preds = %66, %45
  %51 = load i32, i32* %3, align 4
  %52 = load i32, i32* %5, align 4
  %53 = icmp slt i32 %51, %52
  br i1 %53, label %54, label %69

54:                                               ; preds = %50
  %55 = getelementptr inbounds [1000 x double*], [1000 x double*]* %6, i64 0, i64 0
  %56 = load i32, i32* %3, align 4
  %57 = sext i32 %56 to i64
  %58 = getelementptr inbounds double*, double** %55, i64 %57
  %59 = load double*, double** %58, align 8
  %60 = load double, double* %59, align 8
  %61 = load double, double* %8, align 8
  %62 = fsub double %60, %61
  %63 = call double @pow(double %62, double 2.000000e+00) #3
  %64 = load double, double* %9, align 8
  %65 = fadd double %64, %63
  store double %65, double* %9, align 8
  br label %66

66:                                               ; preds = %54
  %67 = load i32, i32* %3, align 4
  %68 = add nsw i32 %67, 1
  store i32 %68, i32* %3, align 4
  br label %50

69:                                               ; preds = %50
  %70 = load double, double* %9, align 8
  %71 = load i32, i32* %5, align 4
  %72 = sitofp i32 %71 to double
  %73 = fdiv double %70, %72
  %74 = call double @sqrt(double %73) #3
  store double %74, double* %9, align 8
  %75 = load double, double* %9, align 8
  %76 = call i32 (i8*, ...) @printf(i8* getelementptr inbounds ([6 x i8], [6 x i8]* @.str.2, i64 0, i64 0), double %75)
  br label %77

77:                                               ; preds = %69
  %78 = load i32, i32* %2, align 4
  %79 = add nsw i32 %78, 1
  store i32 %79, i32* %2, align 4
  br label %11

80:                                               ; preds = %11
  ret i32 0
}

declare dso_local i32 @__isoc99_scanf(i8*, ...) #1

; Function Attrs: nounwind
declare dso_local noalias i8* @malloc(i64) #2

; Function Attrs: nounwind
declare dso_local double @pow(double, double) #2

; Function Attrs: nounwind
declare dso_local double @sqrt(double) #2

declare dso_local i32 @printf(i8*, ...) #1


!llvm.module.flags = !{!0}
!llvm.ident = !{!1}

!0 = !{i32 1, !"wchar_size", i32 4}
!1 = !{!"clang version 10.0.0-4ubuntu1 "}
